(ialigndata
AlignData
p0
(dp1
S'profiles'
p2
(lp3
F-84.0823696496746
aF334.44691684682704
aF13.834949266250021
aF-80.0808413309221
aF232.56906684682696
aF13.94609926625003
aF-42.7067978917893
aI0
aI0
aF-42.7067978917893
aI0
aI0
aF31.6500362457026
aF111.111055933934
asb.