(ialigndata
AlignData
p0
(dp1
S'profiles'
p2
(lp3
F-94.48367649445689
aF334.8006680003914
aF13.637576841934049
aF-76.80330122843199
aF231.43191800039133
aF13.272076841934052
aF-42.57080004207169
aI0
aI0
aF-42.57080004207169
aI0
aI0
aF31.5496730692679
aF112.01202587772
asb.