(islidedata
SlideData
p0
(dp1
S'profiles'
p2
(lp3
F0.0011999999999999997
aF-0.027299999999999998
aF-0.0804
aF-0.0397
aF-0.08410000000000001
aF-0.0772
aF-0.049
aF-0.0741
aF-0.0997
aF-0.1284
aF-0.1109
aF-0.0622
aF-0.066
aF-0.0507
aF-0.1092
asb.