(islidedata
SlideData
p0
(dp1
S'profiles'
p2
(lp3
F0.0024000000000000002
aF0.1794
aF0.005699999999999999
aF0.0144
aF0.022500000000000003
aF-0.1437
aF-0.14049999999999999
aF-0.1462
aF-0.1545
aF0.0015999999999999999
aF-0.1367
aF-0.14579999999999999
aF-0.1461
aF-0.15589999999999998
aF-0.005
asb.